target datalayout = "e-m:e-p270:32:32-p271:32:32-p272:64:64-i64:64-i128:128-f80:128-n8:16:32:64-S128"
target triple = "x86_64-pc-linux-gnu"

%struct._object = type { %union.anon, ptr }
%union.anon = type { i64 }
%struct._typeobject = type { %struct.PyVarObject, ptr, i64, i64, ptr, i64, ptr, ptr, ptr, ptr, ptr, ptr, ptr, ptr, ptr, ptr, ptr, ptr, ptr, i64, ptr, ptr, ptr, ptr, i64, ptr, ptr, ptr, ptr, ptr, ptr, ptr, ptr, ptr, i64, ptr, ptr, ptr, ptr, ptr, ptr, ptr, ptr, ptr, ptr, ptr, i32, ptr, ptr, i8, i16 }
%struct.PyVarObject = type { %struct._object, i64 }
%struct.pysqlite_Blob = type { %struct._object, ptr, ptr, i32, ptr }
%struct.anon = type { i32, i32 }

; Function Attrs: alwaysinline nounwind uwtable
define internal i32 @_Py_IsImmortal(ptr noundef %0) #4 {
  %2 = alloca ptr, align 8
  store ptr %0, ptr %2, align 8, !tbaa !22
  %3 = load ptr, ptr %2, align 8, !tbaa !22
  %4 = getelementptr inbounds nuw %struct._object, ptr %3, i32 0, i32 0
  %5 = getelementptr inbounds nuw %struct.anon, ptr %4, i32 0, i32 0
  %6 = load i32, ptr %5, align 8, !tbaa !31
  %7 = icmp slt i32 %6, 0
  %8 = zext i1 %7 to i32
  ret i32 %8
}

; Function Attrs: alwaysinline nounwind uwtable
define internal void @Py_DECREF(ptr noundef %0) #4 {
  %2 = alloca ptr, align 8
  store ptr %0, ptr %2, align 8, !tbaa !22
  %3 = load ptr, ptr %2, align 8, !tbaa !22
  %4 = call i32 @_Py_IsImmortal(ptr noundef %3)
  %5 = icmp ne i32 %4, 0
  br i1 %5, label %6, label %7

6:                                                ; preds = %1
  br label %16

7:                                                ; preds = %1
  %8 = load ptr, ptr %2, align 8, !tbaa !22
  %9 = getelementptr inbounds nuw %struct._object, ptr %8, i32 0, i32 0
  %10 = getelementptr inbounds nuw %struct.anon, ptr %9, i32 0, i32 0
  %11 = load i32, ptr %10, align 8, !tbaa !31
  %12 = add i32 %11, -1
  store i32 %12, ptr %10, align 8, !tbaa !31
  %13 = icmp eq i32 %12, 0
  br i1 %13, label %14, label %16

14:                                               ; preds = %7
  %15 = load ptr, ptr %2, align 8, !tbaa !22
  call void @_Py_Dealloc(ptr noundef %15)
  br label %16

16:                                               ; preds = %6, %14, %7
  ret void
}

; Function Attrs: nounwind uwtable
define internal void @close_blob(ptr noundef %0) #0 {
  %2 = alloca ptr, align 8
  %3 = alloca ptr, align 8
  %4 = alloca ptr, align 8
  store ptr %0, ptr %2, align 8, !tbaa !3
  %5 = load ptr, ptr %2, align 8, !tbaa !3
  %6 = getelementptr inbounds nuw %struct.pysqlite_Blob, ptr %5, i32 0, i32 2
  %7 = load ptr, ptr %6, align 8, !tbaa !25
  %8 = icmp ne ptr %7, null
  br i1 %8, label %9, label %19

9:                                                ; preds = %1
  call void @llvm.lifetime.start.p0(i64 8, ptr %3) #6
  %10 = load ptr, ptr %2, align 8, !tbaa !3
  %11 = getelementptr inbounds nuw %struct.pysqlite_Blob, ptr %10, i32 0, i32 2
  %12 = load ptr, ptr %11, align 8, !tbaa !25
  store ptr %12, ptr %3, align 8, !tbaa !28
  %13 = load ptr, ptr %2, align 8, !tbaa !3
  %14 = getelementptr inbounds nuw %struct.pysqlite_Blob, ptr %13, i32 0, i32 2
  store ptr null, ptr %14, align 8, !tbaa !25
  call void @llvm.lifetime.start.p0(i64 8, ptr %4) #6
  %15 = call ptr @PyEval_SaveThread()
  store ptr %15, ptr %4, align 8, !tbaa !29
  %16 = load ptr, ptr %3, align 8, !tbaa !28
  %17 = call i32 @sqlite3_blob_close(ptr noundef %16)
  %18 = load ptr, ptr %4, align 8, !tbaa !29
  call void @PyEval_RestoreThread(ptr noundef %18)
  call void @llvm.lifetime.end.p0(i64 8, ptr %4) #6
  call void @llvm.lifetime.end.p0(i64 8, ptr %3) #6
  br label %19

19:                                               ; preds = %9, %1
  ret void
}

; Function Attrs: inlinehint nounwind uwtable
define internal ptr @_Py_TYPE(ptr noundef %0) #2 {
  %2 = alloca ptr, align 8
  store ptr %0, ptr %2, align 8, !tbaa !22
  %3 = load ptr, ptr %2, align 8, !tbaa !22
  %4 = getelementptr inbounds nuw %struct._object, ptr %3, i32 0, i32 1
  %5 = load ptr, ptr %4, align 8, !tbaa !46
  ret ptr %5
}

; Function Attrs: nounwind uwtable
define internal void @blob_dealloc(ptr noundef %0) #0 {
  %2 = alloca ptr, align 8
  %3 = alloca ptr, align 8
  %4 = alloca ptr, align 8
  store ptr %0, ptr %2, align 8, !tbaa !22
  call void @llvm.lifetime.start.p0(i64 8, ptr %3) #6
  %5 = load ptr, ptr %2, align 8, !tbaa !22
  store ptr %5, ptr %3, align 8, !tbaa !3
  call void @llvm.lifetime.start.p0(i64 8, ptr %4) #6
  %6 = load ptr, ptr %3, align 8, !tbaa !3
  %7 = call ptr @_Py_TYPE(ptr noundef %6)
  store ptr %7, ptr %4, align 8, !tbaa !35
  %8 = load ptr, ptr %3, align 8, !tbaa !3
  call void @PyObject_GC_UnTrack(ptr noundef %8)
  %9 = load ptr, ptr %3, align 8, !tbaa !3
  call void @close_blob(ptr noundef %9)
  %10 = load ptr, ptr %3, align 8, !tbaa !3
  %11 = getelementptr inbounds nuw %struct.pysqlite_Blob, ptr %10, i32 0, i32 4
  %12 = load ptr, ptr %11, align 8, !tbaa !36
  %13 = icmp ne ptr %12, null
  br i1 %13, label %14, label %16

14:                                               ; preds = %1
  %15 = load ptr, ptr %2, align 8, !tbaa !22
  call void @PyObject_ClearWeakRefs(ptr noundef %15)
  br label %16

16:                                               ; preds = %14, %1
  %17 = load ptr, ptr %4, align 8, !tbaa !35
  %18 = getelementptr inbounds nuw %struct._typeobject, ptr %17, i32 0, i32 22
  %19 = load ptr, ptr %18, align 8, !tbaa !37
  %20 = load ptr, ptr %2, align 8, !tbaa !22
  %21 = call i32 %19(ptr noundef %20)
  %22 = load ptr, ptr %4, align 8, !tbaa !35
  %23 = getelementptr inbounds nuw %struct._typeobject, ptr %22, i32 0, i32 38
  %24 = load ptr, ptr %23, align 8, !tbaa !43
  %25 = load ptr, ptr %3, align 8, !tbaa !3
  call void %24(ptr noundef %25)
  %26 = load ptr, ptr %4, align 8, !tbaa !35
  call void @Py_DECREF(ptr noundef %26)
  call void @llvm.lifetime.end.p0(i64 8, ptr %4) #6
  call void @llvm.lifetime.end.p0(i64 8, ptr %3) #6
  ret void
}