; Function Attrs: nounwind uwtable
define internal void @blob_dealloc(ptr noundef %0) #0 {
  %2 = getelementptr i8, ptr %0, i64 8
  %.val = load ptr, ptr %2, align 8, !tbaa !30
  tail call void @PyObject_GC_UnTrack(ptr noundef %0) #5
  %3 = getelementptr inbounds nuw i8, ptr %0, i64 24
  %4 = load ptr, ptr %3, align 8, !tbaa !22
  %.not.i11 = icmp eq ptr %4, null
  br i1 %.not.i11, label %close_blob.exit, label %5

5:                                                ; preds = %1
  store ptr null, ptr %3, align 8, !tbaa !22
  %6 = tail call ptr @PyEval_SaveThread() #5
  %7 = tail call i32 @sqlite3_blob_close(ptr noundef nonnull %4) #5
  tail call void @PyEval_RestoreThread(ptr noundef %6) #5
  br label %close_blob.exit

close_blob.exit:                                  ; preds = %1, %5
  %8 = getelementptr inbounds nuw i8, ptr %0, i64 40
  %9 = load ptr, ptr %8, align 8, !tbaa !31
  %.not = icmp eq ptr %9, null
  br i1 %.not, label %11, label %10

10:                                               ; preds = %close_blob.exit
  tail call void @PyObject_ClearWeakRefs(ptr noundef nonnull %0) #5
  br label %11

11:                                               ; preds = %10, %close_blob.exit
  %12 = getelementptr inbounds nuw i8, ptr %.val, i64 192
  %13 = load ptr, ptr %12, align 8, !tbaa !32
  %14 = tail call i32 %13(ptr noundef nonnull %0) #5
  %15 = getelementptr inbounds nuw i8, ptr %.val, i64 320
  %16 = load ptr, ptr %15, align 8, !tbaa !38
  tail call void %16(ptr noundef nonnull %0) #5
  %17 = load i32, ptr %.val, align 8, !tbaa !25
  %.not.i = icmp sgt i32 %17, -1
  br i1 %.not.i, label %18, label %Py_DECREF.exit

18:                                               ; preds = %11
  %19 = add nsw i32 %17, -1
  store i32 %19, ptr %.val, align 8, !tbaa !25
  %20 = icmp eq i32 %19, 0
  br i1 %20, label %21, label %Py_DECREF.exit

21:                                               ; preds = %18
  tail call void @_Py_Dealloc(ptr noundef nonnull %.val) #5
  br label %Py_DECREF.exit

Py_DECREF.exit:                                   ; preds = %11, %18, %21
  ret void
}